; ModuleID = '56/2669.c'
source_filename = "56/2669.c"
target datalayout = "e-m:e-p270:32:32-p271:32:32-p272:64:64-i64:64-f80:128-n8:16:32:64-S128"
target triple = "x86_64-pc-linux-gnu"

@fun.b = internal global [5 x i32] zeroinitializer, align 16
@fun.i = internal global i32 0, align 4
@fun.c = internal global i32 0, align 4
@.str = private unnamed_addr constant [3 x i8] c"%d\00", align 1

; Function Attrs: noinline nounwind uwtable
define dso_local i32 @fun(i32 %0) #0 {
  %2 = alloca i32, align 4
  %3 = alloca i32, align 4
  %4 = alloca i32, align 4
  store i32 %0, i32* %2, align 4
  %5 = load i32, i32* %2, align 4
  %6 = srem i32 %5, 10
  %7 = load i32, i32* @fun.i, align 4
  %8 = sext i32 %7 to i64
  %9 = getelementptr inbounds [5 x i32], [5 x i32]* @fun.b, i64 0, i64 %8
  store i32 %6, i32* %9, align 4
  %10 = load i32, i32* @fun.i, align 4
  %11 = add nsw i32 %10, 1
  store i32 %11, i32* @fun.i, align 4
  %12 = load i32, i32* %2, align 4
  %13 = sdiv i32 %12, 10
  store i32 %13, i32* %2, align 4
  %14 = load i32, i32* %2, align 4
  %15 = icmp sgt i32 %14, 0
  br i1 %15, label %16, label %19

16:                                               ; preds = %1
  %17 = load i32, i32* %2, align 4
  %18 = call i32 @fun(i32 %17)
  br label %55

19:                                               ; preds = %1
  store i32 0, i32* %4, align 4
  br label %20

20:                                               ; preds = %51, %19
  %21 = load i32, i32* %4, align 4
  %22 = load i32, i32* @fun.i, align 4
  %23 = icmp sle i32 %21, %22
  br i1 %23, label %24, label %54

24:                                               ; preds = %20
  store i32 0, i32* %3, align 4
  br label %25

25:                                               ; preds = %41, %24
  %26 = load i32, i32* %3, align 4
  %27 = load i32, i32* @fun.i, align 4
  %28 = load i32, i32* %4, align 4
  %29 = sub nsw i32 %27, %28
  %30 = sub nsw i32 %29, 1
  %31 = icmp slt i32 %26, %30
  br i1 %31, label %32, label %44

32:                                               ; preds = %25
  %33 = load i32, i32* %4, align 4
  %34 = sext i32 %33 to i64
  %35 = getelementptr inbounds [5 x i32], [5 x i32]* @fun.b, i64 0, i64 %34
  %36 = load i32, i32* %35, align 4
  %37 = mul nsw i32 %36, 10
  %38 = load i32, i32* %4, align 4
  %39 = sext i32 %38 to i64
  %40 = getelementptr inbounds [5 x i32], [5 x i32]* @fun.b, i64 0, i64 %39
  store i32 %37, i32* %40, align 4
  br label %41

41:                                               ; preds = %32
  %42 = load i32, i32* %3, align 4
  %43 = add nsw i32 %42, 1
  store i32 %43, i32* %3, align 4
  br label %25

44:                                               ; preds = %25
  %45 = load i32, i32* @fun.c, align 4
  %46 = load i32, i32* %4, align 4
  %47 = sext i32 %46 to i64
  %48 = getelementptr inbounds [5 x i32], [5 x i32]* @fun.b, i64 0, i64 %47
  %49 = load i32, i32* %48, align 4
  %50 = add nsw i32 %45, %49
  store i32 %50, i32* @fun.c, align 4
  br label %51

51:                                               ; preds = %44
  %52 = load i32, i32* %4, align 4
  %53 = add nsw i32 %52, 1
  store i32 %53, i32* %4, align 4
  br label %20

54:                                               ; preds = %20
  br label %55

55:                                               ; preds = %54, %16
  %56 = load i32, i32* @fun.c, align 4
  ret i32 %56
}

; Function Attrs: noinline nounwind uwtable
define dso_local i32 @main() #0 {
  %1 = alloca i32, align 4
  %2 = alloca i32, align 4
  %3 = alloca i32, align 4
  store i32 0, i32* %1, align 4
  %4 = call i32 (i8*, ...) @__isoc99_scanf(i8* getelementptr inbounds ([3 x i8], [3 x i8]* @.str, i64 0, i64 0), i32* %2)
  %5 = load i32, i32* %2, align 4
  %6 = call i32 @fun(i32 %5)
  store i32 %6, i32* %3, align 4
  %7 = load i32, i32* %3, align 4
  %8 = call i32 (i8*, ...) @printf(i8* getelementptr inbounds ([3 x i8], [3 x i8]* @.str, i64 0, i64 0), i32 %7)
  ret i32 0
}

declare dso_local i32 @__isoc99_scanf(i8*, ...) #1

declare dso_local i32 @printf(i8*, ...) #1


!llvm.module.flags = !{!0}
!llvm.ident = !{!1}

!0 = !{i32 1, !"wchar_size", i32 4}
!1 = !{!"clang version 10.0.0-4ubuntu1 "}
